; Function Attrs: mustprogress uwtable
define void @_ZN20EditPickPointsPlugin7endEditER9MeshModelP6GLAreaP26MLSceneGLSharedDataContext(ptr nocapture noundef nonnull align 8 dereferenceable(76) %0, ptr nocapture noundef nonnull readonly align 8 dereferenceable(1288) %1, ptr nocapture noundef readnone %2, ptr nocapture noundef readnone %3) unnamed_addr #9 align 2 personality ptr @__gxx_personality_v0 {
  %5 = alloca %class.QCursor, align 8
  %6 = getelementptr inbounds i8, ptr %1, i64 584
  %7 = load i32, ptr %6, align 8
  %8 = icmp sgt i32 %7, 0
  br i1 %8, label %9, label %20

9:                                                ; preds = %4
  %10 = getelementptr inbounds i8, ptr %0, i64 48
  %11 = load ptr, ptr %10, align 8
  %.not = icmp eq ptr %11, null
  br i1 %.not, label %20, label %12

12:                                               ; preds = %9
  tail call void @_ZN16PickPointsDialog20savePointsToMetaDataEv(ptr noundef nonnull align 8 dereferenceable(464) %11)
  %13 = load ptr, ptr %10, align 8
  tail call void @_ZN7QWidget4hideEv(ptr noundef nonnull align 8 dereferenceable(48) %13)
  %14 = getelementptr inbounds i8, ptr %0, i64 72
  %15 = load i32, ptr %14, align 8
  call void @_ZN7QCursorC1EN2Qt11CursorShapeE(ptr noundef nonnull align 8 dereferenceable(8) %5, i32 noundef %15)
  invoke void @_ZN15QGuiApplication17setOverrideCursorERK7QCursor(ptr noundef nonnull align 8 dereferenceable(8) %5)
          to label %16 unwind label %18

16:                                               ; preds = %12
  call void @_ZN7QCursorD1Ev(ptr noundef nonnull align 8 dereferenceable(8) %5) #23
  %17 = getelementptr inbounds i8, ptr %0, i64 56
  store ptr null, ptr %17, align 8
  br label %20

18:                                               ; preds = %12
  %19 = landingpad { ptr, i32 }
          cleanup
  call void @_ZN7QCursorD1Ev(ptr noundef nonnull align 8 dereferenceable(8) %5) #23
  resume { ptr, i32 } %19

20:                                               ; preds = %16, %9, %4
  ret void
}